Certificate:
    Data:
        Version: 3 (0x2)
        Serial Number: 1 (0x1)
    Signature Algorithm: sha256WithRSAEncryption
        Issuer: O=HassOS, CN=HassOS Provisioning CA Root
        Validity
            Not Before: May 15 16:35:54 2018 GMT
            Not After : May 14 16:35:54 2028 GMT
        Subject: O=HassOS, CN=HassOS Provisioning CA Root
        Subject Public Key Info:
            Public Key Algorithm: rsaEncryption
                Public-Key: (2048 bit)
                Modulus:
                    00:a5:81:96:24:f6:eb:ac:0b:10:72:34:c8:41:70:
                    f5:29:9c:1c:1e:d9:a6:68:a3:ea:c5:e4:68:e7:b5:
                    76:2e:13:e0:0e:fe:8e:c4:2f:d2:76:2c:76:63:15:
                    8d:7e:7f:8a:9f:d8:9a:66:94:b9:b4:6f:5e:bc:a9:
                    59:59:12:fa:bb:7b:af:34:95:79:dd:2d:b1:3e:0e:
                    16:27:92:40:9d:15:55:34:b9:7d:dd:63:2e:64:f9:
                    65:46:e9:b2:de:66:d8:e5:12:9d:af:ca:db:3e:44:
                    15:57:8f:15:17:58:9d:2d:9b:1e:79:7b:ec:eb:28:
                    b3:11:81:a3:34:bb:b5:5d:08:a4:6b:4e:7e:7e:ec:
                    d3:e3:b9:d9:2d:66:e8:04:be:09:d3:75:86:8f:86:
                    94:01:aa:c1:0d:7e:28:74:27:da:c6:b8:d5:bf:94:
                    a0:d2:f5:bf:88:72:40:21:fe:4c:aa:39:06:35:29:
                    ee:c0:f5:f0:f0:85:d0:6b:ea:ee:c7:b7:54:aa:df:
                    e9:e4:cf:cd:5a:1a:61:e5:63:be:3c:7f:4b:6c:ae:
                    79:20:07:e0:44:c5:3d:c2:df:f8:04:64:22:2b:fb:
                    11:cf:99:0e:ba:1f:6b:51:56:ea:27:ca:a6:70:76:
                    19:2f:16:24:35:d9:0a:05:cf:b6:9d:ae:82:4a:e0:
                    5a:c5
                Exponent: 65537 (0x10001)
        X509v3 extensions:
            X509v3 Subject Key Identifier: 
                49:69:2D:A8:24:2F:B0:AC:E6:9A:02:6A:D0:FC:9A:AA:73:9B:62:71
            X509v3 Authority Key Identifier: 
                keyid:49:69:2D:A8:24:2F:B0:AC:E6:9A:02:6A:D0:FC:9A:AA:73:9B:62:71
                DirName:/O=HassOS/CN=HassOS Provisioning CA Root
                serial:01

            X509v3 Basic Constraints: 
                CA:TRUE
    Signature Algorithm: sha256WithRSAEncryption
         08:35:23:fd:fd:da:80:5a:c9:c5:b1:2e:9e:3d:b1:57:7e:ea:
         72:cd:c4:df:b4:5f:a4:47:84:d5:25:6f:c2:27:66:6d:e5:fc:
         91:99:7d:81:7e:38:09:1d:d9:7e:31:fd:db:4b:a3:52:f8:6a:
         98:53:dd:dd:be:21:b3:de:af:01:b5:e4:b1:a6:e4:7b:40:27:
         0c:dc:89:e4:34:78:56:1b:bb:01:e3:2e:90:ee:94:8b:9d:2e:
         f7:37:da:4c:b1:02:ef:7d:53:62:7f:9b:3b:e7:70:44:aa:4e:
         5f:d0:16:a5:1a:2b:62:0b:9e:55:07:12:25:3c:bf:c4:26:52:
         5e:10:c5:b6:25:a7:f7:cd:3b:03:07:bb:66:8f:4a:e6:84:c3:
         06:38:43:ab:2b:c3:29:7c:cb:aa:5f:23:2e:a7:e6:6b:5d:e5:
         dd:d9:ea:2c:59:46:e5:f3:6c:73:9b:eb:ef:74:56:93:f0:e9:
         3c:17:03:57:b6:17:3f:de:2f:2e:1d:6a:65:d8:71:88:6f:ad:
         19:48:d3:3a:05:46:d2:65:71:fa:97:73:38:0c:1d:d2:83:48:
         b1:16:61:7c:f1:db:b6:06:5b:46:8d:45:4c:f4:af:b2:da:b6:
         ca:47:54:f6:e7:37:9e:7a:d6:0c:88:58:06:b0:49:b5:25:16:
         a0:77:9b:5a
-----BEGIN CERTIFICATE-----
MIIDezCCAmOgAwIBAgIBATANBgkqhkiG9w0BAQsFADA3MQ8wDQYDVQQKDAZIYXNz
T1MxJDAiBgNVBAMMG0hhc3NPUyBQcm92aXNpb25pbmcgQ0EgUm9vdDAeFw0xODA1
MTUxNjM1NTRaFw0yODA1MTQxNjM1NTRaMDcxDzANBgNVBAoMBkhhc3NPUzEkMCIG
A1UEAwwbSGFzc09TIFByb3Zpc2lvbmluZyBDQSBSb290MIIBIjANBgkqhkiG9w0B
AQEFAAOCAQ8AMIIBCgKCAQEApYGWJPbrrAsQcjTIQXD1KZwcHtmmaKPqxeRo57V2
LhPgDv6OxC/Sdix2YxWNfn+Kn9iaZpS5tG9evKlZWRL6u3uvNJV53S2xPg4WJ5JA
nRVVNLl93WMuZPllRumy3mbY5RKdr8rbPkQVV48VF1idLZseeXvs6yizEYGjNLu1
XQika05+fuzT47nZLWboBL4J03WGj4aUAarBDX4odCfaxrjVv5Sg0vW/iHJAIf5M
qjkGNSnuwPXw8IXQa+rux7dUqt/p5M/NWhph5WO+PH9LbK55IAfgRMU9wt/4BGQi
K/sRz5kOuh9rUVbqJ8qmcHYZLxYkNdkKBc+2na6CSuBaxQIDAQABo4GRMIGOMB0G
A1UdDgQWBBRJaS2oJC+wrOaaAmrQ/Jqqc5ticTBfBgNVHSMEWDBWgBRJaS2oJC+w
rOaaAmrQ/Jqqc5ticaE7pDkwNzEPMA0GA1UECgwGSGFzc09TMSQwIgYDVQQDDBtI
YXNzT1MgUHJvdmlzaW9uaW5nIENBIFJvb3SCAQEwDAYDVR0TBAUwAwEB/zANBgkq
hkiG9w0BAQsFAAOCAQEACDUj/f3agFrJxbEunj2xV37qcs3E37RfpEeE1SVvwidm
beX8kZl9gX44CR3ZfjH920ujUvhqmFPd3b4hs96vAbXksabke0AnDNyJ5DR4Vhu7
AeMukO6Ui50u9zfaTLEC731TYn+bO+dwRKpOX9AWpRorYgueVQcSJTy/xCZSXhDF
tiWn9807Awe7Zo9K5oTDBjhDqyvDKXzLql8jLqfma13l3dnqLFlG5fNsc5vr73RW
k/DpPBcDV7YXP94vLh1qZdhxiG+tGUjTOgVG0mVx+pdzOAwd0oNIsRZhfPHbtgZb
Ro1FTPSvstq2ykdU9uc3nnrWDIhYBrBJtSUWoHebWg==
-----END CERTIFICATE-----
-----BEGIN X509 CRL-----
MIIBfDBmMA0GCSqGSIb3DQEBCwUAMDcxDzANBgNVBAoMBkhhc3NPUzEkMCIGA1UE
AwwbSGFzc09TIFByb3Zpc2lvbmluZyBDQSBSb290Fw0xODA1MTUxNjM1NTRaFw0z
MjAxMjIxNjM1NTRaMA0GCSqGSIb3DQEBCwUAA4IBAQAWfPq1Bchq5D2B+baE149H
M9ozBTeICoZJ3xNyVPfce9F2VHQjuXngKCVzCgBxeUNJXVbFdDvd0ybs6SoOojeG
WbIeAwzQ2uwluqy7rMx3bvn+QDVUfUP01e7Wd21m1aR+eas6FKCTwUw9CEHMr34s
3TZOJ4av3vVlYcJbCk5mfRQ5xyf6qxsdi/tWHxchrJNi/X/e6AMy2sJmj8mBvPES
JmjWx97JJISvMYuhWZpbycq+SlvISSbP4IcAYAekGJreHxAXuXr4ELZRQAHTeueH
ID0K1fRJU+LVTaQCZohFoECEMqJhrBVs5CTMG2EyEeqlI3I5PTBAyjO362rNkSQz
-----END X509 CRL-----
Certificate:
    Data:
        Version: 3 (0x2)
        Serial Number: 2 (0x2)
    Signature Algorithm: sha256WithRSAEncryption
        Issuer: O=HassOS, CN=HassOS Provisioning CA Root
        Validity
            Not Before: May 15 16:35:54 2018 GMT
            Not After : May 14 16:35:54 2028 GMT
        Subject: O=HassOS, CN=HassOS Provisioning CA Release
        Subject Public Key Info:
            Public Key Algorithm: rsaEncryption
                Public-Key: (2048 bit)
                Modulus:
                    00:b9:38:00:71:51:61:eb:d5:91:87:78:1d:fd:a7:
                    e9:4e:17:75:50:c7:86:2e:4d:64:e3:32:c6:3a:09:
                    13:1a:5d:05:67:af:d5:da:75:c6:cc:b1:b8:c6:b8:
                    86:05:bf:da:fe:62:62:81:c2:1a:34:d4:34:10:20:
                    e3:91:7f:10:d7:f7:18:54:92:02:29:10:8c:39:6b:
                    1f:42:87:60:08:15:92:03:1d:0e:da:88:7c:7e:0a:
                    38:94:d3:d8:fc:8d:d7:7f:d7:0f:6c:94:5d:82:da:
                    bd:b8:5e:26:37:72:6a:75:6d:84:05:f1:64:fa:78:
                    48:98:33:3d:f9:ae:36:67:98:b9:51:19:8a:84:0b:
                    00:18:20:d8:5e:55:22:7b:95:92:e7:81:dd:67:ac:
                    a0:9d:2e:86:a0:79:ee:8d:00:f6:62:c0:9d:5a:99:
                    ac:ec:f0:a6:66:af:b6:f5:05:64:66:34:1e:3d:7a:
                    b4:f5:b5:18:9a:20:e7:d1:a4:36:81:4d:a3:f8:28:
                    c7:3a:17:a3:c2:0f:a2:95:06:f7:a7:de:83:dd:82:
                    72:50:62:b8:24:9d:cc:05:d5:0f:70:1d:98:7f:13:
                    b2:f3:30:5b:dd:83:24:26:b3:af:ea:b3:5d:8b:b5:
                    de:b8:0a:1e:13:ba:f6:1d:ae:08:ba:b2:b3:d7:7d:
                    4f:af
                Exponent: 65537 (0x10001)
        X509v3 extensions:
            X509v3 Subject Key Identifier: 
                E6:1B:A0:DC:7E:B3:8F:81:97:8B:01:83:86:D4:33:5D:A2:B4:F4:2B
            X509v3 Authority Key Identifier: 
                keyid:49:69:2D:A8:24:2F:B0:AC:E6:9A:02:6A:D0:FC:9A:AA:73:9B:62:71
                DirName:/O=HassOS/CN=HassOS Provisioning CA Root
                serial:01

            X509v3 Basic Constraints: 
                CA:TRUE, pathlen:0
    Signature Algorithm: sha256WithRSAEncryption
         63:d9:a4:26:89:fc:4d:0b:e0:51:2f:8e:82:8d:69:9f:1e:fc:
         ed:be:73:a8:f4:8c:99:55:c8:36:af:57:80:9f:97:34:a7:47:
         fb:ae:ee:8f:03:64:2e:88:59:25:c4:f7:e4:8d:85:4b:b3:4a:
         e8:42:84:01:b9:c1:f4:ce:d4:9d:b1:54:34:8d:8d:0d:22:91:
         48:a0:59:f0:ea:b9:f4:a1:0f:63:02:a1:52:cb:c7:92:c0:a7:
         8f:d6:4a:d2:17:36:a5:16:5a:5f:09:1f:48:33:d1:0a:8b:d9:
         41:e9:ae:0d:c6:15:36:63:0e:f8:7b:9d:ab:b0:49:4e:ab:a6:
         1d:54:e5:3f:39:7a:d1:49:31:f7:bf:4f:31:9b:0d:1d:a8:91:
         68:45:b0:fa:e7:e6:9e:2d:37:89:fc:5c:80:64:2c:bb:cd:19:
         8c:d7:5d:d0:b6:76:97:a9:81:e4:2b:77:f9:a3:02:dc:81:d6:
         fe:bd:24:0b:36:6a:c2:0f:b0:60:d9:0e:d3:03:ba:80:d4:50:
         f1:59:dd:bf:c0:96:ee:2c:06:cc:00:2a:cf:dd:48:55:0d:81:
         e6:76:06:92:df:46:29:10:d5:eb:5c:9c:81:75:2d:94:6b:5b:
         2f:15:e3:62:0e:39:53:1c:1f:4a:82:c8:13:c6:ae:91:8c:58:
         e7:70:9e:57
-----BEGIN CERTIFICATE-----
MIIDgTCCAmmgAwIBAgIBAjANBgkqhkiG9w0BAQsFADA3MQ8wDQYDVQQKDAZIYXNz
T1MxJDAiBgNVBAMMG0hhc3NPUyBQcm92aXNpb25pbmcgQ0EgUm9vdDAeFw0xODA1
MTUxNjM1NTRaFw0yODA1MTQxNjM1NTRaMDoxDzANBgNVBAoMBkhhc3NPUzEnMCUG
A1UEAwweSGFzc09TIFByb3Zpc2lvbmluZyBDQSBSZWxlYXNlMIIBIjANBgkqhkiG
9w0BAQEFAAOCAQ8AMIIBCgKCAQEAuTgAcVFh69WRh3gd/afpThd1UMeGLk1k4zLG
OgkTGl0FZ6/V2nXGzLG4xriGBb/a/mJigcIaNNQ0ECDjkX8Q1/cYVJICKRCMOWsf
QodgCBWSAx0O2oh8fgo4lNPY/I3Xf9cPbJRdgtq9uF4mN3JqdW2EBfFk+nhImDM9
+a42Z5i5URmKhAsAGCDYXlUie5WS54HdZ6ygnS6GoHnujQD2YsCdWpms7PCmZq+2
9QVkZjQePXq09bUYmiDn0aQ2gU2j+CjHOhejwg+ilQb3p96D3YJyUGK4JJ3MBdUP
cB2YfxOy8zBb3YMkJrOv6rNdi7XeuAoeE7r2Ha4IurKz131PrwIDAQABo4GUMIGR
MB0GA1UdDgQWBBTmG6DcfrOPgZeLAYOG1DNdorT0KzBfBgNVHSMEWDBWgBRJaS2o
JC+wrOaaAmrQ/Jqqc5ticaE7pDkwNzEPMA0GA1UECgwGSGFzc09TMSQwIgYDVQQD
DBtIYXNzT1MgUHJvdmlzaW9uaW5nIENBIFJvb3SCAQEwDwYDVR0TBAgwBgEB/wIB
ADANBgkqhkiG9w0BAQsFAAOCAQEAY9mkJon8TQvgUS+Ogo1pnx787b5zqPSMmVXI
Nq9XgJ+XNKdH+67ujwNkLohZJcT35I2FS7NK6EKEAbnB9M7UnbFUNI2NDSKRSKBZ
8Oq59KEPYwKhUsvHksCnj9ZK0hc2pRZaXwkfSDPRCovZQemuDcYVNmMO+Hudq7BJ
TqumHVTlPzl60Ukx979PMZsNHaiRaEWw+ufmni03ifxcgGQsu80ZjNdd0LZ2l6mB
5Ct3+aMC3IHW/r0kCzZqwg+wYNkO0wO6gNRQ8Vndv8CW7iwGzAAqz91IVQ2B5nYG
kt9GKRDV61ycgXUtlGtbLxXjYg45UxwfSoLIE8aukYxY53CeVw==
-----END CERTIFICATE-----
-----BEGIN X509 CRL-----
MIIBfzBpMA0GCSqGSIb3DQEBCwUAMDoxDzANBgNVBAoMBkhhc3NPUzEnMCUGA1UE
AwweSGFzc09TIFByb3Zpc2lvbmluZyBDQSBSZWxlYXNlFw0xODA1MTUxNjM1NTRa
Fw0zMjAxMjIxNjM1NTRaMA0GCSqGSIb3DQEBCwUAA4IBAQBOSgkmXR88VTMZfsjY
NYHj2eYSSoFCLLW9CepoeCfIYeb81w6DUusZm4oqyvU+yFj5SBxV6X4ZEJaIaj8r
jZtIbx6O6ocMQp9SX1O0OoG+/JJNm/9eezyhuMEK+OEbpVaPpjw6nvizOJMzAx3G
hdW8u7xOVc004uDyCE0KT/5DTqQifsS1C5NhRZTrXSD4b6PY1d2wJx33zNUlD0B4
7v4f+U9CzQJKY0og7krrlRHfwl8vpMUR4OL1Lxwju8RvcT4u5Do1gp3c7DJ/NJqr
xHQjNseGewHQPrNe4Ix6inwIDRQLimQvF74RlmHf0G+Jf9+m5ixCOWH+ySfReCQ7
fSiy
-----END X509 CRL-----
Certificate:
    Data:
        Version: 3 (0x2)
        Serial Number: 3 (0x3)
    Signature Algorithm: sha256WithRSAEncryption
        Issuer: O=HassOS, CN=HassOS Provisioning CA Root
        Validity
            Not Before: May 15 16:35:54 2018 GMT
            Not After : May 14 16:35:54 2028 GMT
        Subject: O=HassOS, CN=HassOS Provisioning CA Development
        Subject Public Key Info:
            Public Key Algorithm: rsaEncryption
                Public-Key: (2048 bit)
                Modulus:
                    00:e1:db:e7:26:03:db:fe:b8:87:bd:91:57:9a:27:
                    ed:ed:f0:7f:5d:18:0a:5a:a0:18:7d:66:ab:4f:90:
                    ed:c8:ab:de:53:b4:d7:a4:b2:87:e7:d6:28:40:32:
                    11:84:b4:fc:0f:33:f3:97:0c:fe:7c:0e:04:5d:cf:
                    c0:bf:0b:8a:cb:a0:b7:cb:75:e6:b3:76:d0:7b:60:
                    b7:80:be:83:7a:ef:e0:32:fa:91:43:72:c3:2c:72:
                    6c:c7:db:c6:a8:bf:6e:3b:9e:ce:e2:60:6a:b0:7f:
                    38:c5:36:b2:32:f5:50:51:d1:0c:43:e1:b8:cf:b0:
                    fe:10:83:f2:2d:e3:4e:c3:b6:83:e2:17:42:b9:f4:
                    31:b4:b7:47:42:ba:b7:3e:91:f0:8a:90:8f:36:66:
                    ca:6a:9a:6c:96:06:5b:f9:27:4d:ff:94:6b:d3:34:
                    c2:ad:bc:d4:fa:30:0f:76:93:e4:5d:8d:ac:46:b9:
                    ab:e3:7b:44:cc:07:7b:67:33:38:40:7a:73:f5:ef:
                    cd:ab:3a:97:60:77:22:ff:25:83:e6:5f:d7:f6:f1:
                    d1:f9:5d:63:fa:69:5c:9c:b3:b7:60:07:09:b4:78:
                    7d:ca:af:0b:80:46:d5:ee:6e:b1:a4:14:03:ce:7d:
                    62:98:e0:71:31:33:84:7d:65:f4:82:7c:6b:49:18:
                    e6:15
                Exponent: 65537 (0x10001)
        X509v3 extensions:
            X509v3 Subject Key Identifier: 
                A4:B8:E3:2A:38:E2:F4:A4:DC:67:71:E8:04:EC:05:4E:37:27:06:8F
            X509v3 Authority Key Identifier: 
                keyid:49:69:2D:A8:24:2F:B0:AC:E6:9A:02:6A:D0:FC:9A:AA:73:9B:62:71
                DirName:/O=HassOS/CN=HassOS Provisioning CA Root
                serial:01

            X509v3 Basic Constraints: 
                CA:TRUE, pathlen:0
    Signature Algorithm: sha256WithRSAEncryption
         8e:c0:e5:ae:72:94:a6:0c:22:53:27:b9:df:e8:01:60:8a:5b:
         f1:90:4f:56:e1:63:d7:98:c5:1c:49:5f:98:11:79:62:02:b5:
         49:51:1b:b2:38:df:89:c9:3e:35:63:23:48:5a:5c:b2:bf:4c:
         5f:41:4e:75:b6:51:ce:1b:66:f7:85:96:b7:f2:33:7d:6e:42:
         17:60:15:14:18:6f:9f:fb:9b:21:01:28:b5:c7:bd:0c:a4:2c:
         2c:09:a6:5f:ca:b8:f9:02:65:97:30:22:3c:b9:3a:8f:04:31:
         21:d0:ea:66:90:12:fa:e8:10:62:c4:ac:30:3a:e1:29:e1:e2:
         f0:9b:5f:7f:1e:0d:e8:6b:a8:a4:3c:6c:09:97:b2:ab:bf:58:
         16:cc:6f:62:0b:e7:a1:d6:06:f0:aa:7d:be:1f:e4:00:14:d0:
         2a:9c:a7:7d:99:90:74:d2:97:76:f3:72:c0:bf:83:40:41:6b:
         97:ee:ac:a0:ec:5e:79:ba:74:51:ef:d2:22:7f:c8:20:a7:39:
         c6:8f:2b:a8:aa:ad:9e:1b:5e:fe:61:b0:d7:f8:94:6b:64:3c:
         3d:9f:da:4e:59:e8:95:f9:58:81:55:4e:ca:dd:93:24:cf:97:
         4a:0b:47:f2:8c:c8:49:c7:16:cd:69:c0:b6:62:91:19:ae:c9:
         15:ba:99:78
-----BEGIN CERTIFICATE-----
MIIDhTCCAm2gAwIBAgIBAzANBgkqhkiG9w0BAQsFADA3MQ8wDQYDVQQKDAZIYXNz
T1MxJDAiBgNVBAMMG0hhc3NPUyBQcm92aXNpb25pbmcgQ0EgUm9vdDAeFw0xODA1
MTUxNjM1NTRaFw0yODA1MTQxNjM1NTRaMD4xDzANBgNVBAoMBkhhc3NPUzErMCkG
A1UEAwwiSGFzc09TIFByb3Zpc2lvbmluZyBDQSBEZXZlbG9wbWVudDCCASIwDQYJ
KoZIhvcNAQEBBQADggEPADCCAQoCggEBAOHb5yYD2/64h72RV5on7e3wf10YClqg
GH1mq0+Q7cir3lO016Syh+fWKEAyEYS0/A8z85cM/nwOBF3PwL8Lisugt8t15rN2
0Htgt4C+g3rv4DL6kUNywyxybMfbxqi/bjuezuJgarB/OMU2sjL1UFHRDEPhuM+w
/hCD8i3jTsO2g+IXQrn0MbS3R0K6tz6R8IqQjzZmymqabJYGW/knTf+Ua9M0wq28
1PowD3aT5F2NrEa5q+N7RMwHe2czOEB6c/Xvzas6l2B3Iv8lg+Zf1/bx0fldY/pp
XJyzt2AHCbR4fcqvC4BG1e5usaQUA859YpjgcTEzhH1l9IJ8a0kY5hUCAwEAAaOB
lDCBkTAdBgNVHQ4EFgQUpLjjKjji9KTcZ3HoBOwFTjcnBo8wXwYDVR0jBFgwVoAU
SWktqCQvsKzmmgJq0PyaqnObYnGhO6Q5MDcxDzANBgNVBAoMBkhhc3NPUzEkMCIG
A1UEAwwbSGFzc09TIFByb3Zpc2lvbmluZyBDQSBSb290ggEBMA8GA1UdEwQIMAYB
Af8CAQAwDQYJKoZIhvcNAQELBQADggEBAI7A5a5ylKYMIlMnud/oAWCKW/GQT1bh
Y9eYxRxJX5gReWICtUlRG7I434nJPjVjI0haXLK/TF9BTnW2Uc4bZveFlrfyM31u
QhdgFRQYb5/7myEBKLXHvQykLCwJpl/KuPkCZZcwIjy5Oo8EMSHQ6maQEvroEGLE
rDA64Snh4vCbX38eDehrqKQ8bAmXsqu/WBbMb2IL56HWBvCqfb4f5AAU0Cqcp32Z
kHTSl3bzcsC/g0BBa5furKDsXnm6dFHv0iJ/yCCnOcaPK6iqrZ4bXv5hsNf4lGtk
PD2f2k5Z6JX5WIFVTsrdkyTPl0oLR/KMyEnHFs1pwLZikRmuyRW6mXg=
-----END CERTIFICATE-----
-----BEGIN X509 CRL-----
MIIBgzBtMA0GCSqGSIb3DQEBCwUAMD4xDzANBgNVBAoMBkhhc3NPUzErMCkGA1UE
AwwiSGFzc09TIFByb3Zpc2lvbmluZyBDQSBEZXZlbG9wbWVudBcNMTgwNTE1MTYz
NTU0WhcNMzIwMTIyMTYzNTU0WjANBgkqhkiG9w0BAQsFAAOCAQEAhmHxjIYZ+J7U
/Ih4vWTakmjSQgD+cvhOedUMxBBwxerZ2qKB2t3LGSBKjVgOThL84HppNP/Y1Hqs
Kq3RD57aL2ZNdQeP3xXjotb/LXsO8KjNi1SeFFIdXkQ8qFVyXkrbqM2h8PJE3Cu5
yeKJaQytPPl90scqmyS07bfI6akwNyg4W6dKQ8KDQrs3DV+Q1xGff6mUgH/6eTIa
lg8OTjh6yI1+XZr0Yz9bNo0/3AOMTbNTYZMnZTapD6r8k2r3pr7FQ6lIyHaCAUVF
TrWQsqmjuQ2uoj0VZvjKxje8VggNv0NFKg8W3l6p7ng1SVLdzw7i7RIVb+iF9BJC
N373ui3HSw==
-----END X509 CRL-----
